target datalayout = "e-m:e-p270:32:32-p271:32:32-p272:64:64-i64:64-i128:128-f80:128-n8:16:32:64-S128"
target triple = "x86_64-unknown-linux-gnu"

%"class.icu_75::UObject" = type { ptr }
%"class.icu_75::Normalizer2Impl" = type { %"class.icu_75::UObject", i16, i16, i16, i16, i16, i16, i16, i16, i16, i16, i16, i16, ptr, ptr, ptr, ptr, %"struct.icu_75::UInitOnce", ptr }
%"struct.icu_75::UInitOnce" = type { %"struct.std::atomic", i32 }
%"struct.std::atomic" = type { %"struct.std::__atomic_base" }
%"struct.std::__atomic_base" = type { i32 }
%struct.UCPTrie = type { ptr, %union.UCPTrieData, i32, i32, i32, i16, i8, i8, i32, i16, i16, i32, i32 }
%union.UCPTrieData = type { ptr }

; Function Attrs: mustprogress nounwind uwtable
define linkonce_odr noundef ptr @_ZNK6icu_7515Normalizer2Impl10getMappingEt(ptr noundef nonnull align 8 dereferenceable(80) %this, i16 noundef zeroext %norm16) #2 comdat align 2 {
entry:
  %this.addr = alloca ptr, align 8
  %norm16.addr = alloca i16, align 2
  store ptr %this, ptr %this.addr, align 8
  store i16 %norm16, ptr %norm16.addr, align 2
  %this1 = load ptr, ptr %this.addr, align 8
  %extraData = getelementptr inbounds %"class.icu_75::Normalizer2Impl", ptr %this1, i32 0, i32 15
  %0 = load ptr, ptr %extraData, align 8
  %1 = load i16, ptr %norm16.addr, align 2
  %conv = zext i16 %1 to i32
  %shr = ashr i32 %conv, 1
  %idx.ext = sext i32 %shr to i64
  %add.ptr = getelementptr inbounds i16, ptr %0, i64 %idx.ext
  ret ptr %add.ptr
}

; Function Attrs: mustprogress nounwind uwtable
define linkonce_odr noundef signext i8 @_ZNK6icu_7515Normalizer2Impl21isDecompNoAlgorithmicEt(ptr noundef nonnull align 8 dereferenceable(80) %this, i16 noundef zeroext %norm16) #2 comdat align 2 {
entry:
  %this.addr = alloca ptr, align 8
  %norm16.addr = alloca i16, align 2
  store ptr %this, ptr %this.addr, align 8
  store i16 %norm16, ptr %norm16.addr, align 2
  %this1 = load ptr, ptr %this.addr, align 8
  %0 = load i16, ptr %norm16.addr, align 2
  %conv = zext i16 %0 to i32
  %limitNoNo = getelementptr inbounds %"class.icu_75::Normalizer2Impl", ptr %this1, i32 0, i32 10
  %1 = load i16, ptr %limitNoNo, align 2
  %conv2 = zext i16 %1 to i32
  %cmp = icmp sge i32 %conv, %conv2
  %conv3 = zext i1 %cmp to i8
  ret i8 %conv3
}

; Function Attrs: mustprogress nounwind uwtable
define linkonce_odr noundef signext i8 @_ZN6icu_7515Normalizer2Impl7isInertEt(i16 noundef zeroext %norm16) #2 comdat align 2 {
entry:
  %norm16.addr = alloca i16, align 2
  store i16 %norm16, ptr %norm16.addr, align 2
  %0 = load i16, ptr %norm16.addr, align 2
  %conv = zext i16 %0 to i32
  %cmp = icmp eq i32 %conv, 1
  %conv1 = zext i1 %cmp to i8
  ret i8 %conv1
}

; Function Attrs: mustprogress uwtable
define linkonce_odr noundef signext i8 @_ZNK6icu_7515Normalizer2Impl31isTrailCC01ForCompBoundaryAfterEt(ptr noundef nonnull align 8 dereferenceable(80) %this, i16 noundef zeroext %norm16) #0 comdat align 2 {
entry:
  %this.addr = alloca ptr, align 8
  %norm16.addr = alloca i16, align 2
  store ptr %this, ptr %this.addr, align 8
  store i16 %norm16, ptr %norm16.addr, align 2
  %this1 = load ptr, ptr %this.addr, align 8
  %0 = load i16, ptr %norm16.addr, align 2
  %call = call noundef signext i8 @_ZN6icu_7515Normalizer2Impl7isInertEt(i16 noundef zeroext %0)
  %tobool = icmp ne i8 %call, 0
  br i1 %tobool, label %lor.end, label %lor.rhs

lor.rhs:                                          ; preds = %entry
  %1 = load i16, ptr %norm16.addr, align 2
  %call2 = call noundef signext i8 @_ZNK6icu_7515Normalizer2Impl21isDecompNoAlgorithmicEt(ptr noundef nonnull align 8 dereferenceable(80) %this1, i16 noundef zeroext %1)
  %tobool3 = icmp ne i8 %call2, 0
  br i1 %tobool3, label %cond.true, label %cond.false

cond.true:                                        ; preds = %lor.rhs
  %2 = load i16, ptr %norm16.addr, align 2
  %conv = zext i16 %2 to i32
  %and = and i32 %conv, 6
  %cmp = icmp sle i32 %and, 2
  br label %cond.end

cond.false:                                       ; preds = %lor.rhs
  %3 = load i16, ptr %norm16.addr, align 2
  %call4 = call noundef ptr @_ZNK6icu_7515Normalizer2Impl10getMappingEt(ptr noundef nonnull align 8 dereferenceable(80) %this1, i16 noundef zeroext %3)
  %4 = load i16, ptr %call4, align 2
  %conv5 = zext i16 %4 to i32
  %cmp6 = icmp sle i32 %conv5, 511
  br label %cond.end

cond.end:                                         ; preds = %cond.false, %cond.true
  %cond = phi i1 [ %cmp, %cond.true ], [ %cmp6, %cond.false ]
  br label %lor.end

lor.end:                                          ; preds = %cond.end, %entry
  %5 = phi i1 [ true, %entry ], [ %cond, %cond.end ]
  %conv7 = zext i1 %5 to i8
  ret i8 %conv7
}

; Function Attrs: mustprogress uwtable
define linkonce_odr noundef signext i8 @_ZNK6icu_7515Normalizer2Impl26norm16HasCompBoundaryAfterEta(ptr noundef nonnull align 8 dereferenceable(80) %this, i16 noundef zeroext %norm16, i8 noundef signext %onlyContiguous) #0 comdat align 2 {
entry:
  %this.addr = alloca ptr, align 8
  %norm16.addr = alloca i16, align 2
  %onlyContiguous.addr = alloca i8, align 1
  store ptr %this, ptr %this.addr, align 8
  store i16 %norm16, ptr %norm16.addr, align 2
  store i8 %onlyContiguous, ptr %onlyContiguous.addr, align 1
  %this1 = load ptr, ptr %this.addr, align 8
  %0 = load i16, ptr %norm16.addr, align 2
  %conv = zext i16 %0 to i32
  %and = and i32 %conv, 1
  %cmp = icmp ne i32 %and, 0
  br i1 %cmp, label %land.rhs, label %land.end

land.rhs:                                         ; preds = %entry
  %1 = load i8, ptr %onlyContiguous.addr, align 1
  %tobool = icmp ne i8 %1, 0
  br i1 %tobool, label %lor.rhs, label %lor.end

lor.rhs:                                          ; preds = %land.rhs
  %2 = load i16, ptr %norm16.addr, align 2
  %call = call noundef signext i8 @_ZNK6icu_7515Normalizer2Impl31isTrailCC01ForCompBoundaryAfterEt(ptr noundef nonnull align 8 dereferenceable(80) %this1, i16 noundef zeroext %2)
  %tobool2 = icmp ne i8 %call, 0
  br label %lor.end

lor.end:                                          ; preds = %lor.rhs, %land.rhs
  %3 = phi i1 [ true, %land.rhs ], [ %tobool2, %lor.rhs ]
  br label %land.end

land.end:                                         ; preds = %lor.end, %entry
  %4 = phi i1 [ false, %entry ], [ %3, %lor.end ]
  %conv3 = zext i1 %4 to i8
  ret i8 %conv3
}

; Function Attrs: mustprogress uwtable
define noundef signext i8 @_ZNK6icu_7515Normalizer2Impl20hasCompBoundaryAfterEPKhS2_a(ptr noundef nonnull align 8 dereferenceable(80) %this, ptr noundef %start, ptr noundef %p, i8 noundef signext %onlyContiguous) #0 align 2 {
entry:
  %retval = alloca i8, align 1
  %this.addr = alloca ptr, align 8
  %start.addr = alloca ptr, align 8
  %p.addr = alloca ptr, align 8
  %onlyContiguous.addr = alloca i8, align 1
  %norm16 = alloca i16, align 2
  %__index = alloca i32, align 4
  store ptr %this, ptr %this.addr, align 8
  store ptr %start, ptr %start.addr, align 8
  store ptr %p, ptr %p.addr, align 8
  store i8 %onlyContiguous, ptr %onlyContiguous.addr, align 1
  %this1 = load ptr, ptr %this.addr, align 8
  %0 = load ptr, ptr %start.addr, align 8
  %1 = load ptr, ptr %p.addr, align 8
  %cmp = icmp eq ptr %0, %1
  br i1 %cmp, label %if.then, label %if.end

if.then:                                          ; preds = %entry
  store i8 1, ptr %retval, align 1
  br label %return

if.end:                                           ; preds = %entry
  br label %do.body

do.body:                                          ; preds = %if.end
  %2 = load ptr, ptr %p.addr, align 8
  %incdec.ptr = getelementptr inbounds i8, ptr %2, i32 -1
  store ptr %incdec.ptr, ptr %p.addr, align 8
  %3 = load i8, ptr %incdec.ptr, align 1
  %conv = zext i8 %3 to i32
  store i32 %conv, ptr %__index, align 4
  %4 = load i32, ptr %__index, align 4
  %and = and i32 %4, 128
  %cmp2 = icmp eq i32 %and, 0
  br i1 %cmp2, label %if.end5, label %if.then3

if.then3:                                         ; preds = %do.body
  %normTrie = getelementptr inbounds %"class.icu_75::Normalizer2Impl", ptr %this1, i32 0, i32 13
  %5 = load ptr, ptr %normTrie, align 8
  %6 = load i32, ptr %__index, align 4
  %7 = load ptr, ptr %start.addr, align 8
  %8 = load ptr, ptr %p.addr, align 8
  %call = call i32 @ucptrie_internalU8PrevIndex_75(ptr noundef %5, i32 noundef %6, ptr noundef %7, ptr noundef %8)
  store i32 %call, ptr %__index, align 4
  %9 = load i32, ptr %__index, align 4
  %and4 = and i32 %9, 7
  %10 = load ptr, ptr %p.addr, align 8
  %idx.ext = sext i32 %and4 to i64
  %idx.neg = sub i64 0, %idx.ext
  %add.ptr = getelementptr inbounds i8, ptr %10, i64 %idx.neg
  store ptr %add.ptr, ptr %p.addr, align 8
  %11 = load i32, ptr %__index, align 4
  %shr = ashr i32 %11, 3
  store i32 %shr, ptr %__index, align 4
  br label %if.end5

if.end5:                                          ; preds = %if.then3, %do.body
  %normTrie6 = getelementptr inbounds %"class.icu_75::Normalizer2Impl", ptr %this1, i32 0, i32 13
  %12 = load ptr, ptr %normTrie6, align 8
  %data = getelementptr inbounds %struct.UCPTrie, ptr %12, i32 0, i32 1
  %13 = load ptr, ptr %data, align 8
  %14 = load i32, ptr %__index, align 4
  %idxprom = sext i32 %14 to i64
  %arrayidx = getelementptr inbounds i16, ptr %13, i64 %idxprom
  %15 = load i16, ptr %arrayidx, align 2
  store i16 %15, ptr %norm16, align 2
  br label %do.end

do.end:                                           ; preds = %if.end5
  %16 = load i16, ptr %norm16, align 2
  %17 = load i8, ptr %onlyContiguous.addr, align 1
  %call7 = call noundef signext i8 @_ZNK6icu_7515Normalizer2Impl26norm16HasCompBoundaryAfterEta(ptr noundef nonnull align 8 dereferenceable(80) %this1, i16 noundef zeroext %16, i8 noundef signext %17)
  store i8 %call7, ptr %retval, align 1
  br label %return

return:                                           ; preds = %do.end, %if.then
  %18 = load i8, ptr %retval, align 1
  ret i8 %18
}