; Function Attrs: mustprogress uwtable
define noundef signext i8 @_ZNK6icu_7515Normalizer2Impl20hasCompBoundaryAfterEPKhS2_a(ptr nocapture noundef nonnull readonly align 8 dereferenceable(80) %this, ptr noundef %start, ptr noundef %p, i8 noundef signext %onlyContiguous) local_unnamed_addr #0 align 2 {
entry:
  %cmp = icmp eq ptr %start, %p
  br i1 %cmp, label %return, label %do.body

do.body:                                          ; preds = %entry
  %incdec.ptr = getelementptr inbounds i8, ptr %p, i64 -1
  %0 = load i8, ptr %incdec.ptr, align 1
  %conv = zext i8 %0 to i32
  %cmp2 = icmp sgt i8 %0, -1
  br i1 %cmp2, label %if.end5, label %if.then3

if.then3:                                         ; preds = %do.body
  %normTrie = getelementptr inbounds i8, ptr %this, i64 32
  %1 = load ptr, ptr %normTrie, align 8
  %call = tail call i32 @ucptrie_internalU8PrevIndex_75(ptr noundef %1, i32 noundef %conv, ptr noundef %start, ptr noundef nonnull %incdec.ptr)
  %shr = ashr i32 %call, 3
  br label %if.end5

if.end5:                                          ; preds = %if.then3, %do.body
  %__index.0 = phi i32 [ %conv, %do.body ], [ %shr, %if.then3 ]
  %normTrie6 = getelementptr inbounds i8, ptr %this, i64 32
  %2 = load ptr, ptr %normTrie6, align 8
  %data = getelementptr inbounds i8, ptr %2, i64 8
  %3 = load ptr, ptr %data, align 8
  %idxprom = sext i32 %__index.0 to i64
  %arrayidx = getelementptr inbounds i16, ptr %3, i64 %idxprom
  %4 = load i16, ptr %arrayidx, align 2
  %5 = and i16 %4, 1
  %cmp.not.i = icmp eq i16 %5, 0
  br i1 %cmp.not.i, label %return, label %land.rhs.i

land.rhs.i:                                       ; preds = %if.end5
  %tobool.not.i = icmp eq i8 %onlyContiguous, 0
  br i1 %tobool.not.i, label %return, label %lor.rhs.i

lor.rhs.i:                                        ; preds = %land.rhs.i
  %cmp.i.not.i.i = icmp eq i16 %4, 1
  br i1 %cmp.i.not.i.i, label %_ZNK6icu_7515Normalizer2Impl31isTrailCC01ForCompBoundaryAfterEt.exit.i, label %lor.rhs.i.i

lor.rhs.i.i:                                      ; preds = %lor.rhs.i
  %limitNoNo.i.i.i = getelementptr inbounds i8, ptr %this, i64 26
  %6 = load i16, ptr %limitNoNo.i.i.i, align 2
  %cmp.i4.not.i.i = icmp ugt i16 %6, %4
  br i1 %cmp.i4.not.i.i, label %cond.false.i.i, label %cond.true.i.i

cond.true.i.i:                                    ; preds = %lor.rhs.i.i
  %7 = and i16 %4, 6
  %cmp.i.i = icmp ult i16 %7, 3
  br label %_ZNK6icu_7515Normalizer2Impl31isTrailCC01ForCompBoundaryAfterEt.exit.i

cond.false.i.i:                                   ; preds = %lor.rhs.i.i
  %extraData.i.i.i = getelementptr inbounds i8, ptr %this, i64 48
  %8 = load ptr, ptr %extraData.i.i.i, align 8
  %9 = lshr i16 %4, 1
  %idx.ext.i.i.i = zext nneg i16 %9 to i64
  %add.ptr.i.i.i = getelementptr inbounds i16, ptr %8, i64 %idx.ext.i.i.i
  %10 = load i16, ptr %add.ptr.i.i.i, align 2
  %cmp6.i.i = icmp ult i16 %10, 512
  br label %_ZNK6icu_7515Normalizer2Impl31isTrailCC01ForCompBoundaryAfterEt.exit.i

_ZNK6icu_7515Normalizer2Impl31isTrailCC01ForCompBoundaryAfterEt.exit.i: ; preds = %cond.false.i.i, %cond.true.i.i, %lor.rhs.i
  %11 = phi i1 [ true, %lor.rhs.i ], [ %cmp.i.i, %cond.true.i.i ], [ %cmp6.i.i, %cond.false.i.i ]
  %conv7.i.i = zext i1 %11 to i8
  br label %return

return:                                           ; preds = %_ZNK6icu_7515Normalizer2Impl31isTrailCC01ForCompBoundaryAfterEt.exit.i, %land.rhs.i, %if.end5, %entry
  %retval.0 = phi i8 [ 1, %entry ], [ 0, %if.end5 ], [ 1, %land.rhs.i ], [ %conv7.i.i, %_ZNK6icu_7515Normalizer2Impl31isTrailCC01ForCompBoundaryAfterEt.exit.i ]
  ret i8 %retval.0
}